; Function Attrs: mustprogress nofree norecurse nosync nounwind willreturn memory(readwrite, inaccessiblemem: none) uwtable
define hidden void @_ZN9Assembler7evpcmpwE9KRegisterS0_11XMMRegisterS1_ibi(ptr noundef nonnull align 8 dereferenceable(40) %0, i32 %1, i32 %2, i32 %3, i32 %4, i32 noundef %5, i1 noundef zeroext %6, i32 noundef %7) local_unnamed_addr #8 align 2 {
  %9 = alloca %class.InstructionAttr, align 8
  %10 = getelementptr inbounds i8, ptr %0, i64 24
  %11 = load i8, ptr %10, align 8
  %12 = trunc i8 %11 to i1
  store i8 1, ptr %9, align 8
  %13 = getelementptr inbounds i8, ptr %9, i64 1
  %14 = load i32, ptr @UseAVX, align 4
  %15 = icmp slt i32 %14, 3
  %16 = select i1 %12, i1 true, i1 %15
  %17 = zext i1 %16 to i8
  store i8 %17, ptr %13, align 1
  %18 = getelementptr inbounds i8, ptr %9, i64 2
  store i8 0, ptr %18, align 2
  %19 = getelementptr inbounds i8, ptr %9, i64 3
  store i8 1, ptr %19, align 1
  %20 = getelementptr inbounds i8, ptr %9, i64 4
  store i8 0, ptr %20, align 4
  %21 = getelementptr inbounds i8, ptr %9, i64 5
  %22 = getelementptr inbounds i8, ptr %9, i64 6
  %23 = getelementptr inbounds i8, ptr %9, i64 7
  store i8 0, ptr %23, align 1
  %24 = getelementptr inbounds i8, ptr %9, i64 8
  store i32 %7, ptr %24, align 8
  %25 = getelementptr inbounds i8, ptr %9, i64 12
  store i32 24, ptr %25, align 4
  %26 = getelementptr inbounds i8, ptr %9, i64 16
  store i32 4, ptr %26, align 8
  %27 = getelementptr inbounds i8, ptr %9, i64 20
  store i32 0, ptr %27, align 4
  %28 = getelementptr inbounds i8, ptr %9, i64 24
  %29 = getelementptr inbounds i8, ptr %9, i64 32
  store ptr null, ptr %29, align 8
  store i8 1, ptr %21, align 1
  %30 = sext i32 %2 to i64
  %31 = getelementptr inbounds %"class.KRegister::KRegisterImpl", ptr getelementptr inbounds (i8, ptr @all_KRegisterImpls, i64 1), i64 %30
  %32 = ptrtoint ptr %31 to i64
  %33 = trunc i64 %32 to i32
  %34 = sub i32 %33, ptrtoint (ptr getelementptr inbounds (i8, ptr @all_KRegisterImpls, i64 1) to i32)
  %35 = and i32 %34, 7
  store i32 %35, ptr %28, align 8
  store i8 0, ptr %22, align 2
  %36 = sext i32 %1 to i64
  %37 = getelementptr inbounds %"class.KRegister::KRegisterImpl", ptr getelementptr inbounds (i8, ptr @all_KRegisterImpls, i64 1), i64 %36
  %38 = ptrtoint ptr %37 to i64
  %39 = trunc i64 %38 to i32
  %40 = sub i32 %39, ptrtoint (ptr getelementptr inbounds (i8, ptr @all_KRegisterImpls, i64 1) to i32)
  %41 = sext i32 %3 to i64
  %42 = getelementptr inbounds %"class.XMMRegister::XMMRegisterImpl", ptr getelementptr inbounds (i8, ptr @all_XMMRegisterImpls, i64 1), i64 %41
  %43 = ptrtoint ptr %42 to i64
  %44 = trunc i64 %43 to i32
  %45 = sub i32 %44, ptrtoint (ptr getelementptr inbounds (i8, ptr @all_XMMRegisterImpls, i64 1) to i32)
  %46 = sext i32 %4 to i64
  %47 = getelementptr inbounds %"class.XMMRegister::XMMRegisterImpl", ptr getelementptr inbounds (i8, ptr @all_XMMRegisterImpls, i64 1), i64 %46
  %48 = ptrtoint ptr %47 to i64
  %49 = trunc i64 %48 to i32
  %50 = sub i32 %49, ptrtoint (ptr getelementptr inbounds (i8, ptr @all_XMMRegisterImpls, i64 1) to i32)
  %51 = call noundef i32 @_ZN9Assembler21vex_prefix_and_encodeEiiiNS_13VexSimdPrefixENS_9VexOpcodeEP15InstructionAttrb(ptr noundef nonnull align 8 dereferenceable(40) %0, i32 noundef %40, i32 noundef %45, i32 noundef %50, i32 noundef 1, i32 noundef 3, ptr noundef nonnull %9, i1 noundef zeroext false)
  %52 = getelementptr inbounds i8, ptr %0, i64 8
  %53 = load ptr, ptr %52, align 8
  %.0.i.i = select i1 %6, i8 63, i8 62
  %54 = trunc nuw nsw i32 %51 to i8
  %.0.i3.i = or disjoint i8 %54, -64
  %.0.i4.i = trunc i32 %5 to i8
  %55 = getelementptr inbounds i8, ptr %53, i64 16
  %56 = load ptr, ptr %55, align 8
  %57 = getelementptr inbounds i8, ptr %56, i64 1
  store i8 %.0.i.i, ptr %56, align 1
  %58 = getelementptr inbounds i8, ptr %56, i64 2
  store i8 %.0.i3.i, ptr %57, align 1
  %59 = getelementptr inbounds i8, ptr %56, i64 3
  store i8 %.0.i4.i, ptr %58, align 1
  store ptr %59, ptr %55, align 8
  %60 = load ptr, ptr %29, align 8
  %.not.i = icmp eq ptr %60, null
  br i1 %.not.i, label %_ZN15InstructionAttrD2Ev.exit, label %61

61:                                               ; preds = %8
  %62 = getelementptr inbounds i8, ptr %60, i64 32
  store ptr null, ptr %62, align 8
  br label %_ZN15InstructionAttrD2Ev.exit

_ZN15InstructionAttrD2Ev.exit:                    ; preds = %8, %61
  ret void
}